target datalayout = "e-m:e-p270:32:32-p271:32:32-p272:64:64-i64:64-i128:128-f80:128-n8:16:32:64-S128"
target triple = "x86_64-pc-linux-gnu"

@hf_cigi4_symbol_polygon_textured_definition_symbol_id = internal global i32 0, align 4
@hf_cigi4_symbol_polygon_textured_definition_texture_id = internal global i32 0, align 4
@hf_cigi4_symbol_polygon_textured_definition_filter_mode = internal global i32 0, align 4
@hf_cigi4_symbol_polygon_textured_definition_wrap = internal global i32 0, align 4
@hf_cigi4_symbol_polygon_textured_definition_vertices = internal global i32 0, align 4
@hf_cigi4_symbol_polygon_textured_definition_vertex_u = internal global [29 x i32] zeroinitializer, align 16
@hf_cigi4_symbol_polygon_textured_definition_vertex_v = internal global [29 x i32] zeroinitializer, align 16
@hf_cigi4_symbol_polygon_textured_definition_texture_center_u = internal global [29 x i32] zeroinitializer, align 16
@hf_cigi4_symbol_polygon_textured_definition_texture_center_v = internal global [29 x i32] zeroinitializer, align 16
@ett_cigi4_symbol_polygon_textured_definition_vertices = internal global i32 0, align 4
@cigi_byte_order = internal global i32 0, align 4
@.str.2898 = private unnamed_addr constant [4 x i8] c" %u\00", align 1

; Function Attrs: null_pointer_is_valid sspstrong uwtable
define internal i32 @cigi4_add_symbol_polygon_textured(ptr noundef %0, ptr noundef %1, ptr noundef %2, ptr noundef %3) #0 {
  %5 = alloca ptr, align 8
  %6 = alloca ptr, align 8
  %7 = alloca ptr, align 8
  %8 = alloca ptr, align 8
  %9 = alloca ptr, align 8
  %10 = alloca ptr, align 8
  %11 = alloca i32, align 4
  %12 = alloca i32, align 4
  %13 = alloca i32, align 4
  %14 = alloca i32, align 4
  store ptr %0, ptr %5, align 8
  store ptr %1, ptr %6, align 8
  store ptr %2, ptr %7, align 8
  store ptr %3, ptr %8, align 8
  call void @llvm.lifetime.start.p0(i64 8, ptr %9) #5
  call void @llvm.lifetime.start.p0(i64 8, ptr %10) #5
  call void @llvm.lifetime.start.p0(i64 4, ptr %11) #5
  store i32 0, ptr %11, align 4
  call void @llvm.lifetime.start.p0(i64 4, ptr %12) #5
  call void @llvm.lifetime.start.p0(i64 4, ptr %13) #5
  call void @llvm.lifetime.start.p0(i64 4, ptr %14) #5
  %15 = load ptr, ptr %7, align 8
  %16 = load i32, ptr @hf_cigi4_symbol_polygon_textured_definition_symbol_id, align 4
  %17 = load ptr, ptr %5, align 8
  %18 = load i32, ptr %11, align 4
  %19 = load i32, ptr @cigi_byte_order, align 4
  %20 = call ptr @proto_tree_add_item(ptr noundef %15, i32 noundef %16, ptr noundef %17, i32 noundef %18, i32 noundef 2, i32 noundef %19)
  %21 = load i32, ptr %11, align 4
  %22 = add i32 %21, 2
  store i32 %22, ptr %11, align 4
  %23 = load ptr, ptr %7, align 8
  %24 = load i32, ptr @hf_cigi4_symbol_polygon_textured_definition_texture_id, align 4
  %25 = load ptr, ptr %5, align 8
  %26 = load i32, ptr %11, align 4
  %27 = load i32, ptr @cigi_byte_order, align 4
  %28 = call ptr @proto_tree_add_item(ptr noundef %23, i32 noundef %24, ptr noundef %25, i32 noundef %26, i32 noundef 2, i32 noundef %27)
  %29 = load i32, ptr %11, align 4
  %30 = add i32 %29, 2
  store i32 %30, ptr %11, align 4
  %31 = load ptr, ptr %7, align 8
  %32 = load i32, ptr @hf_cigi4_symbol_polygon_textured_definition_filter_mode, align 4
  %33 = load ptr, ptr %5, align 8
  %34 = load i32, ptr %11, align 4
  %35 = load i32, ptr @cigi_byte_order, align 4
  %36 = call ptr @proto_tree_add_item(ptr noundef %31, i32 noundef %32, ptr noundef %33, i32 noundef %34, i32 noundef 1, i32 noundef %35)
  %37 = load ptr, ptr %7, align 8
  %38 = load i32, ptr @hf_cigi4_symbol_polygon_textured_definition_wrap, align 4
  %39 = load ptr, ptr %5, align 8
  %40 = load i32, ptr %11, align 4
  %41 = load i32, ptr @cigi_byte_order, align 4
  %42 = call ptr @proto_tree_add_item(ptr noundef %37, i32 noundef %38, ptr noundef %39, i32 noundef %40, i32 noundef 1, i32 noundef %41)
  %43 = load i32, ptr %11, align 4
  %44 = add i32 %43, 8
  store i32 %44, ptr %11, align 4
  %45 = load ptr, ptr %5, align 8
  %46 = load i32, ptr %11, align 4
  %47 = call i32 @tvb_reported_length_remaining(ptr noundef %45, i32 noundef %46)
  %48 = sdiv i32 %47, 16
  store i32 %48, ptr %12, align 4
  store i32 0, ptr %13, align 4
  br label %49

49:                                               ; preds = %113, %4
  %50 = load i32, ptr %13, align 4
  %51 = load i32, ptr %12, align 4
  %52 = icmp slt i32 %50, %51
  br i1 %52, label %53, label %116

53:                                               ; preds = %49
  %54 = load ptr, ptr %7, align 8
  %55 = load i32, ptr @hf_cigi4_symbol_polygon_textured_definition_vertices, align 4
  %56 = load ptr, ptr %5, align 8
  %57 = load i32, ptr %11, align 4
  %58 = load i32, ptr @cigi_byte_order, align 4
  %59 = call ptr @proto_tree_add_item(ptr noundef %54, i32 noundef %55, ptr noundef %56, i32 noundef %57, i32 noundef 1, i32 noundef %58)
  store ptr %59, ptr %10, align 8
  %60 = load ptr, ptr %10, align 8
  %61 = load i32, ptr %13, align 4
  call void (ptr, ptr, ...) @proto_item_append_text(ptr noundef %60, ptr noundef @.str.2898, i32 noundef %61)
  %62 = load ptr, ptr %10, align 8
  %63 = load i32, ptr @ett_cigi4_symbol_polygon_textured_definition_vertices, align 4
  %64 = call ptr @proto_item_add_subtree(ptr noundef %62, i32 noundef %63)
  store ptr %64, ptr %9, align 8
  %65 = load i32, ptr %13, align 4
  %66 = sext i32 %65 to i64
  %67 = urem i64 %66, 29
  %68 = trunc i64 %67 to i32
  store i32 %68, ptr %14, align 4
  %69 = load ptr, ptr %9, align 8
  %70 = load i32, ptr %14, align 4
  %71 = sext i32 %70 to i64
  %72 = getelementptr [29 x i32], ptr @hf_cigi4_symbol_polygon_textured_definition_vertex_u, i64 0, i64 %71
  %73 = load i32, ptr %72, align 4
  %74 = load ptr, ptr %5, align 8
  %75 = load i32, ptr %11, align 4
  %76 = load i32, ptr @cigi_byte_order, align 4
  %77 = call ptr @proto_tree_add_item(ptr noundef %69, i32 noundef %73, ptr noundef %74, i32 noundef %75, i32 noundef 4, i32 noundef %76)
  %78 = load i32, ptr %11, align 4
  %79 = add i32 %78, 4
  store i32 %79, ptr %11, align 4
  %80 = load ptr, ptr %9, align 8
  %81 = load i32, ptr %14, align 4
  %82 = sext i32 %81 to i64
  %83 = getelementptr [29 x i32], ptr @hf_cigi4_symbol_polygon_textured_definition_vertex_v, i64 0, i64 %82
  %84 = load i32, ptr %83, align 4
  %85 = load ptr, ptr %5, align 8
  %86 = load i32, ptr %11, align 4
  %87 = load i32, ptr @cigi_byte_order, align 4
  %88 = call ptr @proto_tree_add_item(ptr noundef %80, i32 noundef %84, ptr noundef %85, i32 noundef %86, i32 noundef 4, i32 noundef %87)
  %89 = load i32, ptr %11, align 4
  %90 = add i32 %89, 4
  store i32 %90, ptr %11, align 4
  %91 = load ptr, ptr %9, align 8
  %92 = load i32, ptr %14, align 4
  %93 = sext i32 %92 to i64
  %94 = getelementptr [29 x i32], ptr @hf_cigi4_symbol_polygon_textured_definition_texture_center_u, i64 0, i64 %93
  %95 = load i32, ptr %94, align 4
  %96 = load ptr, ptr %5, align 8
  %97 = load i32, ptr %11, align 4
  %98 = load i32, ptr @cigi_byte_order, align 4
  %99 = call ptr @proto_tree_add_item(ptr noundef %91, i32 noundef %95, ptr noundef %96, i32 noundef %97, i32 noundef 4, i32 noundef %98)
  %100 = load i32, ptr %11, align 4
  %101 = add i32 %100, 4
  store i32 %101, ptr %11, align 4
  %102 = load ptr, ptr %9, align 8
  %103 = load i32, ptr %14, align 4
  %104 = sext i32 %103 to i64
  %105 = getelementptr [29 x i32], ptr @hf_cigi4_symbol_polygon_textured_definition_texture_center_v, i64 0, i64 %104
  %106 = load i32, ptr %105, align 4
  %107 = load ptr, ptr %5, align 8
  %108 = load i32, ptr %11, align 4
  %109 = load i32, ptr @cigi_byte_order, align 4
  %110 = call ptr @proto_tree_add_item(ptr noundef %102, i32 noundef %106, ptr noundef %107, i32 noundef %108, i32 noundef 4, i32 noundef %109)
  %111 = load i32, ptr %11, align 4
  %112 = add i32 %111, 4
  store i32 %112, ptr %11, align 4
  br label %113

113:                                              ; preds = %53
  %114 = load i32, ptr %13, align 4
  %115 = add i32 %114, 1
  store i32 %115, ptr %13, align 4
  br label %49, !llvm.loop !14

116:                                              ; preds = %49
  %117 = load i32, ptr %11, align 4
  call void @llvm.lifetime.end.p0(i64 4, ptr %14) #5
  call void @llvm.lifetime.end.p0(i64 4, ptr %13) #5
  call void @llvm.lifetime.end.p0(i64 4, ptr %12) #5
  call void @llvm.lifetime.end.p0(i64 4, ptr %11) #5
  call void @llvm.lifetime.end.p0(i64 8, ptr %10) #5
  call void @llvm.lifetime.end.p0(i64 8, ptr %9) #5
  ret i32 %117
}