; Function Attrs: null_pointer_is_valid sspstrong uwtable
define internal range(i32 12, 0) i32 @cigi4_add_symbol_polygon_textured(ptr noundef %0, ptr readnone captures(none) %1, ptr noundef %2, ptr readnone captures(none) %3) #0 {
  %5 = load i32, ptr @hf_cigi4_symbol_polygon_textured_definition_symbol_id, align 4
  %.b55 = load i1, ptr @cigi_byte_order, align 4
  %6 = select i1 %.b55, i32 -2147483648, i32 0
  %7 = tail call ptr @proto_tree_add_item(ptr noundef %2, i32 noundef %5, ptr noundef %0, i32 noundef 0, i32 noundef 2, i32 noundef %6)
  %8 = load i32, ptr @hf_cigi4_symbol_polygon_textured_definition_texture_id, align 4
  %.b54 = load i1, ptr @cigi_byte_order, align 4
  %9 = select i1 %.b54, i32 -2147483648, i32 0
  %10 = tail call ptr @proto_tree_add_item(ptr noundef %2, i32 noundef %8, ptr noundef %0, i32 noundef 2, i32 noundef 2, i32 noundef %9)
  %11 = load i32, ptr @hf_cigi4_symbol_polygon_textured_definition_filter_mode, align 4
  %.b53 = load i1, ptr @cigi_byte_order, align 4
  %12 = select i1 %.b53, i32 -2147483648, i32 0
  %13 = tail call ptr @proto_tree_add_item(ptr noundef %2, i32 noundef %11, ptr noundef %0, i32 noundef 4, i32 noundef 1, i32 noundef %12)
  %14 = load i32, ptr @hf_cigi4_symbol_polygon_textured_definition_wrap, align 4
  %.b52 = load i1, ptr @cigi_byte_order, align 4
  %15 = select i1 %.b52, i32 -2147483648, i32 0
  %16 = tail call ptr @proto_tree_add_item(ptr noundef %2, i32 noundef %14, ptr noundef %0, i32 noundef 4, i32 noundef 1, i32 noundef %15)
  %17 = tail call i32 @tvb_reported_length_remaining(ptr noundef %0, i32 noundef 12)
  %18 = sdiv i32 %17, 16
  %19 = icmp sgt i32 %17, 15
  br i1 %19, label %.lr.ph, label %._crit_edge

.lr.ph:                                           ; preds = %4, %.lr.ph
  %.057 = phi i32 [ %46, %.lr.ph ], [ 12, %4 ]
  %.04756 = phi i32 [ %47, %.lr.ph ], [ 0, %4 ]
  %20 = load i32, ptr @hf_cigi4_symbol_polygon_textured_definition_vertices, align 4
  %.b51 = load i1, ptr @cigi_byte_order, align 4
  %21 = select i1 %.b51, i32 -2147483648, i32 0
  %22 = tail call ptr @proto_tree_add_item(ptr noundef %2, i32 noundef %20, ptr noundef %0, i32 noundef %.057, i32 noundef 1, i32 noundef %21)
  tail call void (ptr, ptr, ...) @proto_item_append_text(ptr noundef %22, ptr noundef nonnull @.str.2898, i32 noundef %.04756)
  %23 = load i32, ptr @ett_cigi4_symbol_polygon_textured_definition_vertices, align 4
  %24 = tail call ptr @proto_item_add_subtree(ptr noundef %22, i32 noundef %23)
  %25 = urem i32 %.04756, 29
  %26 = zext nneg i32 %25 to i64
  %27 = getelementptr [29 x i32], ptr @hf_cigi4_symbol_polygon_textured_definition_vertex_u, i64 0, i64 %26
  %28 = load i32, ptr %27, align 4
  %.b50 = load i1, ptr @cigi_byte_order, align 4
  %29 = select i1 %.b50, i32 -2147483648, i32 0
  %30 = tail call ptr @proto_tree_add_item(ptr noundef %24, i32 noundef %28, ptr noundef %0, i32 noundef %.057, i32 noundef 4, i32 noundef %29)
  %31 = add nuw nsw i32 %.057, 4
  %32 = getelementptr [29 x i32], ptr @hf_cigi4_symbol_polygon_textured_definition_vertex_v, i64 0, i64 %26
  %33 = load i32, ptr %32, align 4
  %.b49 = load i1, ptr @cigi_byte_order, align 4
  %34 = select i1 %.b49, i32 -2147483648, i32 0
  %35 = tail call ptr @proto_tree_add_item(ptr noundef %24, i32 noundef %33, ptr noundef %0, i32 noundef %31, i32 noundef 4, i32 noundef %34)
  %36 = add nuw nsw i32 %.057, 8
  %37 = getelementptr [29 x i32], ptr @hf_cigi4_symbol_polygon_textured_definition_texture_center_u, i64 0, i64 %26
  %38 = load i32, ptr %37, align 4
  %.b48 = load i1, ptr @cigi_byte_order, align 4
  %39 = select i1 %.b48, i32 -2147483648, i32 0
  %40 = tail call ptr @proto_tree_add_item(ptr noundef %24, i32 noundef %38, ptr noundef %0, i32 noundef %36, i32 noundef 4, i32 noundef %39)
  %41 = add nuw nsw i32 %.057, 12
  %42 = getelementptr [29 x i32], ptr @hf_cigi4_symbol_polygon_textured_definition_texture_center_v, i64 0, i64 %26
  %43 = load i32, ptr %42, align 4
  %.b = load i1, ptr @cigi_byte_order, align 4
  %44 = select i1 %.b, i32 -2147483648, i32 0
  %45 = tail call ptr @proto_tree_add_item(ptr noundef %24, i32 noundef %43, ptr noundef %0, i32 noundef %41, i32 noundef 4, i32 noundef %44)
  %46 = add nuw nsw i32 %.057, 16
  %47 = add nuw nsw i32 %.04756, 1
  %exitcond.not = icmp eq i32 %47, %18
  br i1 %exitcond.not, label %._crit_edge, label %.lr.ph, !llvm.loop !12

._crit_edge:                                      ; preds = %.lr.ph, %4
  %.0.lcssa = phi i32 [ 12, %4 ], [ %46, %.lr.ph ]
  ret i32 %.0.lcssa
}